; Function Attrs: mustprogress nofree norecurse nosync nounwind willreturn memory(read, inaccessiblemem: none) uwtable
define hidden noundef i64 @_ZN9CodeCache28bytes_allocated_in_freelistsEv() local_unnamed_addr #5 align 2 {
  %1 = load ptr, ptr @_ZN9CodeCache16_allocable_heapsE, align 8
  %2 = load i32, ptr %1, align 4
  %.not7 = icmp eq i32 %2, 0
  br i1 %.not7, label %._crit_edge, label %.lr.ph

.lr.ph:                                           ; preds = %0
  %3 = getelementptr inbounds i8, ptr %1, i64 8
  %4 = load ptr, ptr %3, align 8
  %5 = load i64, ptr @CodeCacheSegmentSize, align 8
  %6 = zext i32 %2 to i64
  br label %7

7:                                                ; preds = %.lr.ph, %7
  %indvars.iv = phi i64 [ 0, %.lr.ph ], [ %indvars.iv.next, %7 ]
  %.09 = phi i64 [ 0, %.lr.ph ], [ %13, %7 ]
  %8 = getelementptr inbounds ptr, ptr %4, i64 %indvars.iv
  %9 = load ptr, ptr %8, align 8
  %10 = getelementptr inbounds i8, ptr %9, i64 280
  %11 = load i64, ptr %10, align 8
  %12 = mul i64 %5, %11
  %13 = add i64 %12, %.09
  %indvars.iv.next = add nuw nsw i64 %indvars.iv, 1
  %.not = icmp eq i64 %indvars.iv.next, %6
  br i1 %.not, label %._crit_edge, label %7, !llvm.loop !47

._crit_edge:                                      ; preds = %7, %0
  %.0.lcssa = phi i64 [ 0, %0 ], [ %13, %7 ]
  ret i64 %.0.lcssa
}